; Function Attrs: mustprogress nounwind uwtable
define hidden noundef ptr @_ZNK4Node23unique_ctrl_out_or_nullEv(ptr noundef nonnull readonly align 8 dereferenceable(52) %0) local_unnamed_addr #0 align 2 {
  %2 = getelementptr inbounds i8, ptr %0, i64 32
  %3 = load i32, ptr %2, align 8
  %.not17 = icmp eq i32 %3, 0
  br i1 %.not17, label %._crit_edge, label %.lr.ph

.lr.ph:                                           ; preds = %1
  %4 = getelementptr inbounds i8, ptr %0, i64 16
  br label %5

5:                                                ; preds = %.lr.ph, %15
  %indvars.iv = phi i64 [ 0, %.lr.ph ], [ %indvars.iv.next, %15 ]
  %.01113 = phi ptr [ null, %.lr.ph ], [ %.1, %15 ]
  %6 = load ptr, ptr %4, align 8
  %7 = getelementptr inbounds ptr, ptr %6, i64 %indvars.iv
  %8 = load ptr, ptr %7, align 8
  %9 = load ptr, ptr %8, align 8
  %10 = getelementptr inbounds i8, ptr %9, i64 16
  %11 = load ptr, ptr %10, align 8
  %12 = tail call noundef zeroext i1 %11(ptr noundef nonnull align 8 dereferenceable(52) %8) #15
  %13 = icmp ne ptr %8, %0
  %or.cond = and i1 %13, %12
  br i1 %or.cond, label %14, label %15

14:                                               ; preds = %5
  %.not = icmp eq ptr %.01113, null
  br i1 %.not, label %15, label %._crit_edge

15:                                               ; preds = %14, %5
  %.1 = phi ptr [ %.01113, %5 ], [ %8, %14 ]
  %indvars.iv.next = add nuw nsw i64 %indvars.iv, 1
  %16 = load i32, ptr %2, align 8
  %17 = zext i32 %16 to i64
  %18 = icmp ult i64 %indvars.iv.next, %17
  br i1 %18, label %5, label %._crit_edge, !llvm.loop !46

._crit_edge:                                      ; preds = %14, %15, %1
  %.0 = phi ptr [ null, %1 ], [ %.1, %15 ], [ null, %14 ]
  ret ptr %.0
}